; Function Attrs: mustprogress nofree norecurse nosync nounwind memory(readwrite, inaccessiblemem: none) uwtable
define void @_ZN3gmx33normalizeSumPositiveValuesToUnityENS_8ArrayRefIfEE(ptr %0, ptr readnone %1) local_unnamed_addr #18 {
  %.not5.i = icmp eq ptr %0, %1
  br i1 %.not5.i, label %"_ZSt9transformIN3gmx12ArrayRefIterIfEES2_ZNS0_33normalizeSumPositiveValuesToUnityENS0_8ArrayRefIfEEE3$_1ET0_T_S7_S6_T1_.exit", label %.lr.ph.i

.lr.ph.i:                                         ; preds = %2, %.lr.ph.i
  %.07.i = phi double [ %7, %.lr.ph.i ], [ 0.000000e+00, %2 ]
  %.sroa.0.06.i = phi ptr [ %8, %.lr.ph.i ], [ %0, %2 ]
  %3 = load float, ptr %.sroa.0.06.i, align 4
  %4 = fcmp ogt float %3, 0.000000e+00
  %5 = fpext float %3 to double
  %6 = fadd double %.07.i, %5
  %7 = select i1 %4, double %6, double %.07.i
  %8 = getelementptr inbounds i8, ptr %.sroa.0.06.i, i64 4
  %.not.i = icmp eq ptr %8, %1
  br i1 %.not.i, label %"_ZSt10accumulateIN3gmx12ArrayRefIterIfEEdZNS0_33normalizeSumPositiveValuesToUnityENS0_8ArrayRefIfEEE3$_0ET0_T_S7_S6_T1_.exit", label %.lr.ph.i, !llvm.loop !47

"_ZSt10accumulateIN3gmx12ArrayRefIterIfEEdZNS0_33normalizeSumPositiveValuesToUnityENS0_8ArrayRefIfEEE3$_0ET0_T_S7_S6_T1_.exit": ; preds = %.lr.ph.i
  %9 = fcmp oeq double %7, 0.000000e+00
  br i1 %9, label %"_ZSt9transformIN3gmx12ArrayRefIterIfEES2_ZNS0_33normalizeSumPositiveValuesToUnityENS0_8ArrayRefIfEEE3$_1ET0_T_S7_S6_T1_.exit", label %.lr.ph.i12

.lr.ph.i12:                                       ; preds = %"_ZSt10accumulateIN3gmx12ArrayRefIterIfEEdZNS0_33normalizeSumPositiveValuesToUnityENS0_8ArrayRefIfEEE3$_0ET0_T_S7_S6_T1_.exit", %.lr.ph.i12
  %.sroa.07.011.i = phi ptr [ %13, %.lr.ph.i12 ], [ %0, %"_ZSt10accumulateIN3gmx12ArrayRefIterIfEEdZNS0_33normalizeSumPositiveValuesToUnityENS0_8ArrayRefIfEEE3$_0ET0_T_S7_S6_T1_.exit" ]
  %.val4.i = load float, ptr %.sroa.07.011.i, align 4
  %10 = fpext float %.val4.i to double
  %11 = fdiv double %10, %7
  %12 = fptrunc double %11 to float
  store float %12, ptr %.sroa.07.011.i, align 4
  %13 = getelementptr i8, ptr %.sroa.07.011.i, i64 4
  %.not.i13 = icmp eq ptr %13, %1
  br i1 %.not.i13, label %"_ZSt9transformIN3gmx12ArrayRefIterIfEES2_ZNS0_33normalizeSumPositiveValuesToUnityENS0_8ArrayRefIfEEE3$_1ET0_T_S7_S6_T1_.exit", label %.lr.ph.i12, !llvm.loop !48

"_ZSt9transformIN3gmx12ArrayRefIterIfEES2_ZNS0_33normalizeSumPositiveValuesToUnityENS0_8ArrayRefIfEEE3$_1ET0_T_S7_S6_T1_.exit": ; preds = %.lr.ph.i12, %"_ZSt10accumulateIN3gmx12ArrayRefIterIfEEdZNS0_33normalizeSumPositiveValuesToUnityENS0_8ArrayRefIfEEE3$_0ET0_T_S7_S6_T1_.exit", %2
  ret void
}